#include <math.h>
#include <stdio.h>
#include <stdlib.h>
#include <string.h>

int main()
{
    int n,i,j,a;
    scanf("%d",&n);
    if(n<5)
    printf("empty\n");
    else
    {
      for(i=3;i<n-1;i++)
      {
         a=(int)sqrt(i);
         for(j=2;j<=a;j++)
         {
            if(i%j==0)
            {break;}
         }
         if(j==a+1)
           {
                  a=(int)sqrt(i+2);
                   for(j=2;j<=a;j++)
                    {
                      if((i+2)%j==0)
                      {break;}
                     }
                    if(j==a+1)
                    {printf("%d %d\n",i,i+2);}
           
           }
          
       }
    }
     // getchar();
     // getchar();
      return 0;
}
